; ModuleID = '31/1720.c'
source_filename = "31/1720.c"
target datalayout = "e-m:e-p270:32:32-p271:32:32-p272:64:64-i64:64-f80:128-n8:16:32:64-S128"
target triple = "x86_64-pc-linux-gnu"

%struct.student = type { [100 x i8], [100 x i8], [2 x i8], i32, [20 x i8], [100 x i8], %struct.student* }

@.str = private unnamed_addr constant [3 x i8] c"%s\00", align 1
@.str.1 = private unnamed_addr constant [4 x i8] c"end\00", align 1
@.str.2 = private unnamed_addr constant [11 x i8] c"%s%s%d%s%s\00", align 1
@.str.3 = private unnamed_addr constant [19 x i8] c"%s %s %s %d %s %s\0A\00", align 1

; Function Attrs: noinline nounwind uwtable
define dso_local %struct.student* @creat() #0 {
  %1 = alloca %struct.student*, align 8
  %2 = alloca %struct.student*, align 8
  %3 = alloca %struct.student*, align 8
  store %struct.student* null, %struct.student** %3, align 8
  %4 = call noalias i8* @malloc(i64 100) #4
  %5 = bitcast i8* %4 to %struct.student*
  store %struct.student* %5, %struct.student** %2, align 8
  %6 = load %struct.student*, %struct.student** %2, align 8
  %7 = getelementptr inbounds %struct.student, %struct.student* %6, i32 0, i32 0
  %8 = getelementptr inbounds [100 x i8], [100 x i8]* %7, i64 0, i64 0
  %9 = call i32 (i8*, ...) @__isoc99_scanf(i8* getelementptr inbounds ([3 x i8], [3 x i8]* @.str, i64 0, i64 0), i8* %8)
  %10 = load %struct.student*, %struct.student** %2, align 8
  %11 = getelementptr inbounds %struct.student, %struct.student* %10, i32 0, i32 0
  %12 = getelementptr inbounds [100 x i8], [100 x i8]* %11, i64 0, i64 0
  %13 = call i32 @strcmp(i8* %12, i8* getelementptr inbounds ([4 x i8], [4 x i8]* @.str.1, i64 0, i64 0)) #5
  %14 = icmp ne i32 %13, 0
  br i1 %14, label %15, label %69

15:                                               ; preds = %0
  %16 = load %struct.student*, %struct.student** %2, align 8
  %17 = getelementptr inbounds %struct.student, %struct.student* %16, i32 0, i32 1
  %18 = getelementptr inbounds [100 x i8], [100 x i8]* %17, i64 0, i64 0
  %19 = load %struct.student*, %struct.student** %2, align 8
  %20 = getelementptr inbounds %struct.student, %struct.student* %19, i32 0, i32 2
  %21 = getelementptr inbounds [2 x i8], [2 x i8]* %20, i64 0, i64 0
  %22 = load %struct.student*, %struct.student** %2, align 8
  %23 = getelementptr inbounds %struct.student, %struct.student* %22, i32 0, i32 3
  %24 = load %struct.student*, %struct.student** %2, align 8
  %25 = getelementptr inbounds %struct.student, %struct.student* %24, i32 0, i32 4
  %26 = getelementptr inbounds [20 x i8], [20 x i8]* %25, i64 0, i64 0
  %27 = load %struct.student*, %struct.student** %2, align 8
  %28 = getelementptr inbounds %struct.student, %struct.student* %27, i32 0, i32 5
  %29 = getelementptr inbounds [100 x i8], [100 x i8]* %28, i64 0, i64 0
  %30 = call i32 (i8*, ...) @__isoc99_scanf(i8* getelementptr inbounds ([11 x i8], [11 x i8]* @.str.2, i64 0, i64 0), i8* %18, i8* %21, i32* %23, i8* %26, i8* %29)
  %31 = load %struct.student*, %struct.student** %2, align 8
  %32 = getelementptr inbounds %struct.student, %struct.student* %31, i32 0, i32 6
  store %struct.student* null, %struct.student** %32, align 8
  %33 = load %struct.student*, %struct.student** %2, align 8
  store %struct.student* %33, %struct.student** %3, align 8
  br label %34

34:                                               ; preds = %15, %67
  %35 = call noalias i8* @malloc(i64 100) #4
  %36 = bitcast i8* %35 to %struct.student*
  store %struct.student* %36, %struct.student** %2, align 8
  %37 = load %struct.student*, %struct.student** %2, align 8
  %38 = getelementptr inbounds %struct.student, %struct.student* %37, i32 0, i32 0
  %39 = getelementptr inbounds [100 x i8], [100 x i8]* %38, i64 0, i64 0
  %40 = call i32 (i8*, ...) @__isoc99_scanf(i8* getelementptr inbounds ([3 x i8], [3 x i8]* @.str, i64 0, i64 0), i8* %39)
  %41 = load %struct.student*, %struct.student** %2, align 8
  %42 = getelementptr inbounds %struct.student, %struct.student* %41, i32 0, i32 0
  %43 = getelementptr inbounds [100 x i8], [100 x i8]* %42, i64 0, i64 0
  %44 = call i32 @strcmp(i8* %43, i8* getelementptr inbounds ([4 x i8], [4 x i8]* @.str.1, i64 0, i64 0)) #5
  %45 = icmp eq i32 %44, 0
  br i1 %45, label %46, label %47

46:                                               ; preds = %34
  br label %68

47:                                               ; preds = %34
  %48 = load %struct.student*, %struct.student** %2, align 8
  %49 = getelementptr inbounds %struct.student, %struct.student* %48, i32 0, i32 1
  %50 = getelementptr inbounds [100 x i8], [100 x i8]* %49, i64 0, i64 0
  %51 = load %struct.student*, %struct.student** %2, align 8
  %52 = getelementptr inbounds %struct.student, %struct.student* %51, i32 0, i32 2
  %53 = getelementptr inbounds [2 x i8], [2 x i8]* %52, i64 0, i64 0
  %54 = load %struct.student*, %struct.student** %2, align 8
  %55 = getelementptr inbounds %struct.student, %struct.student* %54, i32 0, i32 3
  %56 = load %struct.student*, %struct.student** %2, align 8
  %57 = getelementptr inbounds %struct.student, %struct.student* %56, i32 0, i32 4
  %58 = getelementptr inbounds [20 x i8], [20 x i8]* %57, i64 0, i64 0
  %59 = load %struct.student*, %struct.student** %2, align 8
  %60 = getelementptr inbounds %struct.student, %struct.student* %59, i32 0, i32 5
  %61 = getelementptr inbounds [100 x i8], [100 x i8]* %60, i64 0, i64 0
  %62 = call i32 (i8*, ...) @__isoc99_scanf(i8* getelementptr inbounds ([11 x i8], [11 x i8]* @.str.2, i64 0, i64 0), i8* %50, i8* %53, i32* %55, i8* %58, i8* %61)
  %63 = load %struct.student*, %struct.student** %3, align 8
  %64 = load %struct.student*, %struct.student** %2, align 8
  %65 = getelementptr inbounds %struct.student, %struct.student* %64, i32 0, i32 6
  store %struct.student* %63, %struct.student** %65, align 8
  %66 = load %struct.student*, %struct.student** %2, align 8
  store %struct.student* %66, %struct.student** %3, align 8
  br label %67

67:                                               ; preds = %47
  br label %34

68:                                               ; preds = %46
  br label %69

69:                                               ; preds = %68, %0
  %70 = load %struct.student*, %struct.student** %3, align 8
  store %struct.student* %70, %struct.student** %1, align 8
  %71 = load %struct.student*, %struct.student** %1, align 8
  ret %struct.student* %71
}

; Function Attrs: nounwind
declare dso_local noalias i8* @malloc(i64) #1

declare dso_local i32 @__isoc99_scanf(i8*, ...) #2

; Function Attrs: nounwind readonly
declare dso_local i32 @strcmp(i8*, i8*) #3

; Function Attrs: noinline nounwind uwtable
define dso_local void @print(%struct.student* %0) #0 {
  %2 = alloca %struct.student*, align 8
  %3 = alloca %struct.student*, align 8
  store %struct.student* %0, %struct.student** %2, align 8
  %4 = load %struct.student*, %struct.student** %2, align 8
  store %struct.student* %4, %struct.student** %3, align 8
  br label %5

5:                                                ; preds = %8, %1
  %6 = load %struct.student*, %struct.student** %3, align 8
  %7 = icmp ne %struct.student* %6, null
  br i1 %7, label %8, label %31

8:                                                ; preds = %5
  %9 = load %struct.student*, %struct.student** %3, align 8
  %10 = getelementptr inbounds %struct.student, %struct.student* %9, i32 0, i32 0
  %11 = getelementptr inbounds [100 x i8], [100 x i8]* %10, i64 0, i64 0
  %12 = load %struct.student*, %struct.student** %3, align 8
  %13 = getelementptr inbounds %struct.student, %struct.student* %12, i32 0, i32 1
  %14 = getelementptr inbounds [100 x i8], [100 x i8]* %13, i64 0, i64 0
  %15 = load %struct.student*, %struct.student** %3, align 8
  %16 = getelementptr inbounds %struct.student, %struct.student* %15, i32 0, i32 2
  %17 = getelementptr inbounds [2 x i8], [2 x i8]* %16, i64 0, i64 0
  %18 = load %struct.student*, %struct.student** %3, align 8
  %19 = getelementptr inbounds %struct.student, %struct.student* %18, i32 0, i32 3
  %20 = load i32, i32* %19, align 4
  %21 = load %struct.student*, %struct.student** %3, align 8
  %22 = getelementptr inbounds %struct.student, %struct.student* %21, i32 0, i32 4
  %23 = getelementptr inbounds [20 x i8], [20 x i8]* %22, i64 0, i64 0
  %24 = load %struct.student*, %struct.student** %3, align 8
  %25 = getelementptr inbounds %struct.student, %struct.student* %24, i32 0, i32 5
  %26 = getelementptr inbounds [100 x i8], [100 x i8]* %25, i64 0, i64 0
  %27 = call i32 (i8*, ...) @printf(i8* getelementptr inbounds ([19 x i8], [19 x i8]* @.str.3, i64 0, i64 0), i8* %11, i8* %14, i8* %17, i32 %20, i8* %23, i8* %26)
  %28 = load %struct.student*, %struct.student** %3, align 8
  %29 = getelementptr inbounds %struct.student, %struct.student* %28, i32 0, i32 6
  %30 = load %struct.student*, %struct.student** %29, align 8
  store %struct.student* %30, %struct.student** %3, align 8
  br label %5

31:                                               ; preds = %5
  ret void
}

declare dso_local i32 @printf(i8*, ...) #2

; Function Attrs: noinline nounwind uwtable
define dso_local void @main() #0 {
  %1 = alloca %struct.student*, align 8
  store %struct.student* null, %struct.student** %1, align 8
  %2 = call %struct.student* @creat()
  store %struct.student* %2, %struct.student** %1, align 8
  %3 = load %struct.student*, %struct.student** %1, align 8
  call void @print(%struct.student* %3)
  ret void
}


!llvm.module.flags = !{!0}
!llvm.ident = !{!1}

!0 = !{i32 1, !"wchar_size", i32 4}
!1 = !{!"clang version 10.0.0-4ubuntu1 "}
